target datalayout = "e-m:e-p270:32:32-p271:32:32-p272:64:64-i64:64-i128:128-f80:128-n8:16:32:64-S128"
target triple = "x86_64-pc-linux-gnu"

%class.OffsetCompactHashtable = type { %class.CompactHashtable }
%class.CompactHashtable = type { %class.SimpleCompactHashtable }
%class.SimpleCompactHashtable = type { ptr, i32, i32, ptr, ptr }
%class.LogTagSet = type { ptr, i64, [5 x i32], [4 x i8], %class.LogOutputList, %class.LogDecorators, ptr }
%class.LogOutputList = type <{ [6 x ptr], i32, [4 x i8] }>
%class.LogDecorators = type { i32 }
%class.CompactHashtableStats = type { i32, i32, i32, i32 }
%class.KlassSubGraphInfo = type <{ ptr, ptr, ptr, i8, i8, [6 x i8] }>
%class.ResourceHashtableBase.28 = type <{ %class.FixedResourceHashtableStorage.29, i32, [4 x i8] }>
%class.FixedResourceHashtableStorage.29 = type { [137 x ptr] }
%class.ResourceHashtableNode.91 = type { i32, ptr, %class.KlassSubGraphInfo, ptr }
%class.CompactHashtableWriter = type { i32, i32, i32, i32, i32, ptr, ptr, ptr, ptr }
%struct.CopyKlassSubGraphInfoToArchive = type { ptr }
%"class.HeapShared::DumpTimeKlassSubGraphInfoTable" = type { %class.ResourceHashtable.base.31, i32 }
%class.ResourceHashtable.base.31 = type { %class.ResourceHashtableBase.base.30 }
%class.ResourceHashtableBase.base.30 = type <{ %class.FixedResourceHashtableStorage.29, i32 }>
%class.anon.96 = type { ptr }

@_ZN10HeapShared30_dump_time_subgraph_info_tableE = hidden global ptr null, align 8
@_ZN10HeapShared29_run_time_subgraph_info_tableE = hidden global %class.OffsetCompactHashtable zeroinitializer, align 8
@.str.51 = private unnamed_addr constant [10 x i8] c"subgraphs\00", align 1
@_ZN16LogTagSetMappingILN6LogTag4typeE14ELS1_52ELS1_0ELS1_0ELS1_0ELS1_0EE7_tagsetE = linkonce_odr hidden global %class.LogTagSet zeroinitializer, comdat, align 8

; Function Attrs: mustprogress nounwind uwtable
define linkonce_odr hidden noundef i32 @_ZNK29FixedResourceHashtableStorageILj137EP5Klass17KlassSubGraphInfoE10table_sizeEv(ptr noundef nonnull align 8 dereferenceable(1096) %0) #1 comdat align 2 {
  %2 = alloca ptr, align 8
  store ptr %0, ptr %2, align 8
  ret i32 137
}

; Function Attrs: mustprogress nounwind uwtable
define linkonce_odr hidden noundef ptr @_ZNK29FixedResourceHashtableStorageILj137EP5Klass17KlassSubGraphInfoE5tableEv(ptr noundef nonnull align 8 dereferenceable(1096) %0) #1 comdat align 2 {
  %2 = alloca ptr, align 8
  store ptr %0, ptr %2, align 8
  %3 = load ptr, ptr %2, align 8
  %4 = getelementptr inbounds %class.FixedResourceHashtableStorage.29, ptr %3, i32 0, i32 0
  %5 = getelementptr inbounds [137 x ptr], ptr %4, i64 0, i64 0
  ret ptr %5
}

; Function Attrs: mustprogress nounwind uwtable
define linkonce_odr hidden noundef zeroext i1 @_ZNK13LogOutputList8is_levelEN8LogLevel4typeE(ptr noundef nonnull align 8 dereferenceable(52) %0, i32 noundef %1) #1 comdat align 2 {
  %3 = alloca ptr, align 8
  %4 = alloca i32, align 4
  store ptr %0, ptr %3, align 8
  store i32 %1, ptr %4, align 4
  %5 = load ptr, ptr %3, align 8
  %6 = getelementptr inbounds %class.LogOutputList, ptr %5, i32 0, i32 0
  %7 = load i32, ptr %4, align 4
  %8 = zext i32 %7 to i64
  %9 = getelementptr inbounds [6 x ptr], ptr %6, i64 0, i64 %8
  %10 = load volatile ptr, ptr %9, align 8
  %11 = icmp ne ptr %10, null
  ret i1 %11
}

; Function Attrs: mustprogress nounwind uwtable
define linkonce_odr hidden noundef zeroext i1 @_ZZNK21ResourceHashtableBaseI29FixedResourceHashtableStorageILj137EP5Klass17KlassSubGraphInfoES2_S3_LN6AnyObj15allocation_typeE2EL8MEMFLAGS13EXadL_Z29DumpTimeSharedClassTable_hashIS1_EjRKPT_EEXadL_Z16primitive_equalsIS2_EbRKS9_SF_EEE7iterateI30CopyKlassSubGraphInfoToArchiveEEvSA_ENKUlRS2_RS3_E_clESJ_SK_(ptr noundef nonnull align 8 dereferenceable(8) %0, ptr noundef nonnull align 8 dereferenceable(8) %1, ptr noundef nonnull align 8 dereferenceable(26) %2) #1 comdat align 2 {
  %4 = alloca ptr, align 8
  %5 = alloca ptr, align 8
  %6 = alloca ptr, align 8
  store ptr %0, ptr %4, align 8
  store ptr %1, ptr %5, align 8
  store ptr %2, ptr %6, align 8
  %7 = load ptr, ptr %4, align 8
  %8 = getelementptr inbounds %class.anon.96, ptr %7, i32 0, i32 0
  %9 = load ptr, ptr %8, align 8
  %10 = load ptr, ptr %9, align 8
  %11 = load ptr, ptr %5, align 8
  %12 = load ptr, ptr %11, align 8
  %13 = load ptr, ptr %6, align 8
  %14 = call noundef zeroext i1 @_ZN30CopyKlassSubGraphInfoToArchive8do_entryEP5KlassR17KlassSubGraphInfo(ptr noundef nonnull align 8 dereferenceable(8) %10, ptr noundef %12, ptr noundef nonnull align 8 dereferenceable(26) %13)
  ret i1 %14
}

; Function Attrs: mustprogress nounwind uwtable
define linkonce_odr hidden noundef ptr @_ZNK21ResourceHashtableBaseI29FixedResourceHashtableStorageILj137EP5Klass17KlassSubGraphInfoES2_S3_LN6AnyObj15allocation_typeE2EL8MEMFLAGS13EXadL_Z29DumpTimeSharedClassTable_hashIS1_EjRKPT_EEXadL_Z16primitive_equalsIS2_EbRKS9_SF_EEE9bucket_atEj(ptr noundef nonnull align 8 dereferenceable(1100) %0, i32 noundef %1) #1 comdat align 2 {
  %3 = alloca ptr, align 8
  %4 = alloca i32, align 4
  %5 = alloca ptr, align 8
  store ptr %0, ptr %3, align 8
  store i32 %1, ptr %4, align 4
  %6 = load ptr, ptr %3, align 8
  %7 = call noundef ptr @_ZNK21ResourceHashtableBaseI29FixedResourceHashtableStorageILj137EP5Klass17KlassSubGraphInfoES2_S3_LN6AnyObj15allocation_typeE2EL8MEMFLAGS13EXadL_Z29DumpTimeSharedClassTable_hashIS1_EjRKPT_EEXadL_Z16primitive_equalsIS2_EbRKS9_SF_EEE5tableEv(ptr noundef nonnull align 8 dereferenceable(1100) %6)
  store ptr %7, ptr %5, align 8
  %8 = load ptr, ptr %5, align 8
  %9 = load i32, ptr %4, align 4
  %10 = zext i32 %9 to i64
  %11 = getelementptr inbounds ptr, ptr %8, i64 %10
  ret ptr %11
}

; Function Attrs: mustprogress nounwind uwtable
define linkonce_odr hidden noundef i32 @_ZNK21ResourceHashtableBaseI29FixedResourceHashtableStorageILj137EP5Klass17KlassSubGraphInfoES2_S3_LN6AnyObj15allocation_typeE2EL8MEMFLAGS13EXadL_Z29DumpTimeSharedClassTable_hashIS1_EjRKPT_EEXadL_Z16primitive_equalsIS2_EbRKS9_SF_EEE10table_sizeEv(ptr noundef nonnull align 8 dereferenceable(1100) %0) #1 comdat align 2 {
  %2 = alloca ptr, align 8
  store ptr %0, ptr %2, align 8
  %3 = load ptr, ptr %2, align 8
  %4 = call noundef i32 @_ZNK29FixedResourceHashtableStorageILj137EP5Klass17KlassSubGraphInfoE10table_sizeEv(ptr noundef nonnull align 8 dereferenceable(1096) %3)
  ret i32 %4
}

; Function Attrs: mustprogress nounwind uwtable
define linkonce_odr hidden noundef ptr @_ZNK21ResourceHashtableBaseI29FixedResourceHashtableStorageILj137EP5Klass17KlassSubGraphInfoES2_S3_LN6AnyObj15allocation_typeE2EL8MEMFLAGS13EXadL_Z29DumpTimeSharedClassTable_hashIS1_EjRKPT_EEXadL_Z16primitive_equalsIS2_EbRKS9_SF_EEE5tableEv(ptr noundef nonnull align 8 dereferenceable(1100) %0) #1 comdat align 2 {
  %2 = alloca ptr, align 8
  store ptr %0, ptr %2, align 8
  %3 = load ptr, ptr %2, align 8
  %4 = call noundef ptr @_ZNK29FixedResourceHashtableStorageILj137EP5Klass17KlassSubGraphInfoE5tableEv(ptr noundef nonnull align 8 dereferenceable(1096) %3)
  ret ptr %4
}

; Function Attrs: mustprogress nounwind uwtable
define linkonce_odr hidden noundef zeroext i1 @_ZNK9LogTagSet8is_levelEN8LogLevel4typeE(ptr noundef nonnull align 8 dereferenceable(112) %0, i32 noundef %1) #1 comdat align 2 {
  %3 = alloca ptr, align 8
  %4 = alloca i32, align 4
  store ptr %0, ptr %3, align 8
  store i32 %1, ptr %4, align 4
  %5 = load ptr, ptr %3, align 8
  %6 = getelementptr inbounds %class.LogTagSet, ptr %5, i32 0, i32 4
  %7 = load i32, ptr %4, align 4
  %8 = call noundef zeroext i1 @_ZNK13LogOutputList8is_levelEN8LogLevel4typeE(ptr noundef nonnull align 8 dereferenceable(52) %6, i32 noundef %7)
  ret i1 %8
}

; Function Attrs: mustprogress nounwind uwtable
define linkonce_odr hidden noundef nonnull align 8 dereferenceable(112) ptr @_ZN16LogTagSetMappingILN6LogTag4typeE14ELS1_52ELS1_0ELS1_0ELS1_0ELS1_0EE6tagsetEv() #1 comdat align 2 {
  ret ptr @_ZN16LogTagSetMappingILN6LogTag4typeE14ELS1_52ELS1_0ELS1_0ELS1_0ELS1_0EE7_tagsetE
}

; Function Attrs: mustprogress nounwind uwtable
define linkonce_odr hidden void @_ZNK21ResourceHashtableBaseI29FixedResourceHashtableStorageILj137EP5Klass17KlassSubGraphInfoES2_S3_LN6AnyObj15allocation_typeE2EL8MEMFLAGS13EXadL_Z29DumpTimeSharedClassTable_hashIS1_EjRKPT_EEXadL_Z16primitive_equalsIS2_EbRKS9_SF_EEE7iterateIZNKSG_7iterateI30CopyKlassSubGraphInfoToArchiveEEvSA_EUlRS2_RS3_E_EEvS9_(ptr noundef nonnull align 8 dereferenceable(1100) %0, ptr %1) #1 comdat align 2 {
  %3 = alloca %class.anon.96, align 8
  %4 = alloca ptr, align 8
  %5 = alloca ptr, align 8
  %6 = alloca i32, align 4
  %7 = alloca i32, align 4
  %8 = alloca ptr, align 8
  %9 = alloca i8, align 1
  %10 = getelementptr inbounds %class.anon.96, ptr %3, i32 0, i32 0
  store ptr %1, ptr %10, align 8
  store ptr %0, ptr %4, align 8
  %11 = load ptr, ptr %4, align 8
  %12 = call noundef ptr @_ZNK21ResourceHashtableBaseI29FixedResourceHashtableStorageILj137EP5Klass17KlassSubGraphInfoES2_S3_LN6AnyObj15allocation_typeE2EL8MEMFLAGS13EXadL_Z29DumpTimeSharedClassTable_hashIS1_EjRKPT_EEXadL_Z16primitive_equalsIS2_EbRKS9_SF_EEE5tableEv(ptr noundef nonnull align 8 dereferenceable(1100) %11)
  store ptr %12, ptr %5, align 8
  %13 = call noundef i32 @_ZNK21ResourceHashtableBaseI29FixedResourceHashtableStorageILj137EP5Klass17KlassSubGraphInfoES2_S3_LN6AnyObj15allocation_typeE2EL8MEMFLAGS13EXadL_Z29DumpTimeSharedClassTable_hashIS1_EjRKPT_EEXadL_Z16primitive_equalsIS2_EbRKS9_SF_EEE10table_sizeEv(ptr noundef nonnull align 8 dereferenceable(1100) %11)
  store i32 %13, ptr %6, align 4
  %14 = getelementptr inbounds %class.ResourceHashtableBase.28, ptr %11, i32 0, i32 1
  %15 = load i32, ptr %14, align 8
  store i32 %15, ptr %7, align 4
  br label %16

16:                                               ; preds = %48, %2
  %17 = load i32, ptr %7, align 4
  %18 = icmp sgt i32 %17, 0
  br i1 %18, label %19, label %24

19:                                               ; preds = %16
  %20 = load ptr, ptr %5, align 8
  %21 = load i32, ptr %6, align 4
  %22 = call noundef ptr @_ZNK21ResourceHashtableBaseI29FixedResourceHashtableStorageILj137EP5Klass17KlassSubGraphInfoES2_S3_LN6AnyObj15allocation_typeE2EL8MEMFLAGS13EXadL_Z29DumpTimeSharedClassTable_hashIS1_EjRKPT_EEXadL_Z16primitive_equalsIS2_EbRKS9_SF_EEE9bucket_atEj(ptr noundef nonnull align 8 dereferenceable(1100) %11, i32 noundef %21)
  %23 = icmp ult ptr %20, %22
  br label %24

24:                                               ; preds = %19, %16
  %25 = phi i1 [ false, %16 ], [ %23, %19 ]
  br i1 %25, label %26, label %51

26:                                               ; preds = %24
  %27 = load ptr, ptr %5, align 8
  %28 = load ptr, ptr %27, align 8
  store ptr %28, ptr %8, align 8
  br label %29

29:                                               ; preds = %42, %26
  %30 = load ptr, ptr %8, align 8
  %31 = icmp ne ptr %30, null
  br i1 %31, label %32, label %48

32:                                               ; preds = %29
  %33 = load ptr, ptr %8, align 8
  %34 = getelementptr inbounds %class.ResourceHashtableNode.91, ptr %33, i32 0, i32 1
  %35 = load ptr, ptr %8, align 8
  %36 = getelementptr inbounds %class.ResourceHashtableNode.91, ptr %35, i32 0, i32 2
  %37 = call noundef zeroext i1 @_ZZNK21ResourceHashtableBaseI29FixedResourceHashtableStorageILj137EP5Klass17KlassSubGraphInfoES2_S3_LN6AnyObj15allocation_typeE2EL8MEMFLAGS13EXadL_Z29DumpTimeSharedClassTable_hashIS1_EjRKPT_EEXadL_Z16primitive_equalsIS2_EbRKS9_SF_EEE7iterateI30CopyKlassSubGraphInfoToArchiveEEvSA_ENKUlRS2_RS3_E_clESJ_SK_(ptr noundef nonnull align 8 dereferenceable(8) %3, ptr noundef nonnull align 8 dereferenceable(8) %34, ptr noundef nonnull align 8 dereferenceable(26) %36)
  %38 = zext i1 %37 to i8
  store i8 %38, ptr %9, align 1
  %39 = load i8, ptr %9, align 1
  %40 = trunc i8 %39 to i1
  br i1 %40, label %42, label %41

41:                                               ; preds = %32
  br label %51

42:                                               ; preds = %32
  %43 = load ptr, ptr %8, align 8
  %44 = getelementptr inbounds %class.ResourceHashtableNode.91, ptr %43, i32 0, i32 3
  %45 = load ptr, ptr %44, align 8
  store ptr %45, ptr %8, align 8
  %46 = load i32, ptr %7, align 4
  %47 = add nsw i32 %46, -1
  store i32 %47, ptr %7, align 4
  br label %29, !llvm.loop !57

48:                                               ; preds = %29
  %49 = load ptr, ptr %5, align 8
  %50 = getelementptr inbounds ptr, ptr %49, i32 1
  store ptr %50, ptr %5, align 8
  br label %16, !llvm.loop !58

51:                                               ; preds = %41, %24
  ret void
}

; Function Attrs: mustprogress nounwind uwtable
define linkonce_odr hidden noundef zeroext i1 @_ZN7LogImplILN6LogTag4typeE14ELS1_52ELS1_0ELS1_0ELS1_0ELS1_0EE8is_levelEN8LogLevel4typeE(i32 noundef %0) #1 comdat align 2 {
  %2 = alloca i32, align 4
  store i32 %0, ptr %2, align 4
  %3 = call noundef nonnull align 8 dereferenceable(112) ptr @_ZN16LogTagSetMappingILN6LogTag4typeE14ELS1_52ELS1_0ELS1_0ELS1_0ELS1_0EE6tagsetEv()
  %4 = load i32, ptr %2, align 4
  %5 = call noundef zeroext i1 @_ZNK9LogTagSet8is_levelEN8LogLevel4typeE(ptr noundef nonnull align 8 dereferenceable(112) %3, i32 noundef %4)
  ret i1 %5
}

; Function Attrs: mustprogress nounwind uwtable
define linkonce_odr hidden void @_ZNK21ResourceHashtableBaseI29FixedResourceHashtableStorageILj137EP5Klass17KlassSubGraphInfoES2_S3_LN6AnyObj15allocation_typeE2EL8MEMFLAGS13EXadL_Z29DumpTimeSharedClassTable_hashIS1_EjRKPT_EEXadL_Z16primitive_equalsIS2_EbRKS9_SF_EEE7iterateI30CopyKlassSubGraphInfoToArchiveEEvSA_(ptr noundef nonnull align 8 dereferenceable(1100) %0, ptr noundef %1) #1 comdat align 2 {
  %3 = alloca ptr, align 8
  %4 = alloca ptr, align 8
  %5 = alloca %class.anon.96, align 8
  %6 = alloca %class.anon.96, align 8
  store ptr %0, ptr %3, align 8
  store ptr %1, ptr %4, align 8
  %7 = load ptr, ptr %3, align 8
  %8 = getelementptr inbounds %class.anon.96, ptr %5, i32 0, i32 0
  store ptr %4, ptr %8, align 8
  call void @llvm.memcpy.p0.p0.i64(ptr align 8 %6, ptr align 8 %5, i64 8, i1 false)
  %9 = getelementptr inbounds %class.anon.96, ptr %6, i32 0, i32 0
  %10 = load ptr, ptr %9, align 8
  call void @_ZNK21ResourceHashtableBaseI29FixedResourceHashtableStorageILj137EP5Klass17KlassSubGraphInfoES2_S3_LN6AnyObj15allocation_typeE2EL8MEMFLAGS13EXadL_Z29DumpTimeSharedClassTable_hashIS1_EjRKPT_EEXadL_Z16primitive_equalsIS2_EbRKS9_SF_EEE7iterateIZNKSG_7iterateI30CopyKlassSubGraphInfoToArchiveEEvSA_EUlRS2_RS3_E_EEvS9_(ptr noundef nonnull align 8 dereferenceable(1100) %7, ptr %10)
  ret void
}

; Function Attrs: mustprogress nounwind uwtable
define linkonce_odr hidden void @_ZN30CopyKlassSubGraphInfoToArchiveC2EP22CompactHashtableWriter(ptr noundef nonnull align 8 dereferenceable(8) %0, ptr noundef %1) unnamed_addr #1 comdat align 2 {
  %3 = alloca ptr, align 8
  %4 = alloca ptr, align 8
  store ptr %0, ptr %3, align 8
  store ptr %1, ptr %4, align 8
  %5 = load ptr, ptr %3, align 8
  %6 = getelementptr inbounds %struct.CopyKlassSubGraphInfoToArchive, ptr %5, i32 0, i32 0
  %7 = load ptr, ptr %4, align 8
  store ptr %7, ptr %6, align 8
  ret void
}

; Function Attrs: mustprogress nounwind uwtable
define linkonce_odr hidden void @_ZN22SimpleCompactHashtable5resetEv(ptr noundef nonnull align 8 dereferenceable(32) %0) #1 comdat align 2 {
  %2 = alloca ptr, align 8
  store ptr %0, ptr %2, align 8
  %3 = load ptr, ptr %2, align 8
  %4 = getelementptr inbounds %class.SimpleCompactHashtable, ptr %3, i32 0, i32 0
  store ptr null, ptr %4, align 8
  %5 = getelementptr inbounds %class.SimpleCompactHashtable, ptr %3, i32 0, i32 1
  store i32 0, ptr %5, align 8
  %6 = getelementptr inbounds %class.SimpleCompactHashtable, ptr %3, i32 0, i32 2
  store i32 0, ptr %6, align 4
  %7 = getelementptr inbounds %class.SimpleCompactHashtable, ptr %3, i32 0, i32 3
  store ptr null, ptr %7, align 8
  %8 = getelementptr inbounds %class.SimpleCompactHashtable, ptr %3, i32 0, i32 4
  store ptr null, ptr %8, align 8
  ret void
}

; Function Attrs: mustprogress nounwind uwtable
define linkonce_odr hidden void @_ZN21CompactHashtableStatsC2Ev(ptr noundef nonnull align 4 dereferenceable(16) %0) unnamed_addr #1 comdat align 2 {
  %2 = alloca ptr, align 8
  store ptr %0, ptr %2, align 8
  %3 = load ptr, ptr %2, align 8
  %4 = getelementptr inbounds %class.CompactHashtableStats, ptr %3, i32 0, i32 0
  store i32 0, ptr %4, align 4
  %5 = getelementptr inbounds %class.CompactHashtableStats, ptr %3, i32 0, i32 1
  store i32 0, ptr %5, align 4
  %6 = getelementptr inbounds %class.CompactHashtableStats, ptr %3, i32 0, i32 2
  store i32 0, ptr %6, align 4
  %7 = getelementptr inbounds %class.CompactHashtableStats, ptr %3, i32 0, i32 3
  store i32 0, ptr %7, align 4
  ret void
}

; Function Attrs: mustprogress nounwind uwtable
define hidden void @_ZN10HeapShared25write_subgraph_info_tableEv() #1 align 2 {
  %1 = alloca ptr, align 8
  %2 = alloca %class.CompactHashtableStats, align 4
  %3 = alloca %class.CompactHashtableWriter, align 8
  %4 = alloca %struct.CopyKlassSubGraphInfoToArchive, align 8
  %5 = load ptr, ptr @_ZN10HeapShared30_dump_time_subgraph_info_tableE, align 8
  store ptr %5, ptr %1, align 8
  call void @_ZN21CompactHashtableStatsC2Ev(ptr noundef nonnull align 4 dereferenceable(16) %2)
  call void @_ZN22SimpleCompactHashtable5resetEv(ptr noundef nonnull align 8 dereferenceable(32) @_ZN10HeapShared29_run_time_subgraph_info_tableE)
  %6 = load ptr, ptr %1, align 8
  %7 = getelementptr inbounds %"class.HeapShared::DumpTimeKlassSubGraphInfoTable", ptr %6, i32 0, i32 1
  %8 = load i32, ptr %7, align 4
  call void @_ZN22CompactHashtableWriterC1EiP21CompactHashtableStats(ptr noundef nonnull align 8 dereferenceable(56) %3, i32 noundef %8, ptr noundef %2)
  call void @_ZN30CopyKlassSubGraphInfoToArchiveC2EP22CompactHashtableWriter(ptr noundef nonnull align 8 dereferenceable(8) %4, ptr noundef %3)
  %9 = load ptr, ptr %1, align 8
  call void @_ZNK21ResourceHashtableBaseI29FixedResourceHashtableStorageILj137EP5Klass17KlassSubGraphInfoES2_S3_LN6AnyObj15allocation_typeE2EL8MEMFLAGS13EXadL_Z29DumpTimeSharedClassTable_hashIS1_EjRKPT_EEXadL_Z16primitive_equalsIS2_EbRKS9_SF_EEE7iterateI30CopyKlassSubGraphInfoToArchiveEEvSA_(ptr noundef nonnull align 8 dereferenceable(1100) %9, ptr noundef %4)
  call void @_ZN22CompactHashtableWriter4dumpEP22SimpleCompactHashtablePKc(ptr noundef nonnull align 8 dereferenceable(56) %3, ptr noundef @_ZN10HeapShared29_run_time_subgraph_info_tableE, ptr noundef @.str.51)
  %10 = call noundef zeroext i1 @_ZN7LogImplILN6LogTag4typeE14ELS1_52ELS1_0ELS1_0ELS1_0ELS1_0EE8is_levelEN8LogLevel4typeE(i32 noundef 3)
  br i1 %10, label %11, label %12

11:                                               ; preds = %0
  call void @_ZN10HeapShared11print_statsEv()
  br label %12

12:                                               ; preds = %11, %0
  call void @_ZN22CompactHashtableWriterD1Ev(ptr noundef nonnull align 8 dereferenceable(56) %3) #11
  ret void
}