; Function Attrs: mustprogress nounwind uwtable
define hidden void @_ZN10HeapShared25write_subgraph_info_tableEv() local_unnamed_addr #2 align 2 {
  %1 = alloca %class.CompactHashtableStats, align 4
  %2 = alloca %class.CompactHashtableWriter, align 8
  %3 = alloca %struct.CopyKlassSubGraphInfoToArchive, align 8
  %4 = load ptr, ptr @_ZN10HeapShared30_dump_time_subgraph_info_tableE, align 8
  call void @llvm.memset.p0.i64(ptr noundef nonnull align 4 dereferenceable(16) %1, i8 0, i64 16, i1 false)
  tail call void @llvm.memset.p0.i64(ptr noundef nonnull align 8 dereferenceable(32) @_ZN10HeapShared29_run_time_subgraph_info_tableE, i8 0, i64 32, i1 false)
  %5 = getelementptr inbounds i8, ptr %4, i64 1100
  %6 = load i32, ptr %5, align 4
  call void @_ZN22CompactHashtableWriterC1EiP21CompactHashtableStats(ptr noundef nonnull align 8 dereferenceable(56) %2, i32 noundef %6, ptr noundef nonnull %1) #20
  store ptr %2, ptr %3, align 8
  %7 = getelementptr inbounds i8, ptr %4, i64 1096
  %8 = load i32, ptr %7, align 8
  %9 = icmp sgt i32 %8, 0
  br i1 %9, label %.preheader.i.i, label %_ZNK21ResourceHashtableBaseI29FixedResourceHashtableStorageILj137EP5Klass17KlassSubGraphInfoES2_S3_LN6AnyObj15allocation_typeE2EL8MEMFLAGS13EXadL_Z29DumpTimeSharedClassTable_hashIS1_EjRKPT_EEXadL_Z16primitive_equalsIS2_EbRKS9_SF_EEE7iterateI30CopyKlassSubGraphInfoToArchiveEEvSA_.exit

.preheader.i.i:                                   ; preds = %0, %._crit_edge.i.i
  %.0.idx20.i.i = phi i64 [ %.0.add.i.i, %._crit_edge.i.i ], [ 0, %0 ]
  %.01219.i.i = phi i32 [ %.1.lcssa.i.i, %._crit_edge.i.i ], [ %8, %0 ]
  %.0.ptr21.i.i = getelementptr inbounds i8, ptr %4, i64 %.0.idx20.i.i
  %.01115.i.i = load ptr, ptr %.0.ptr21.i.i, align 8
  %.not16.i.i = icmp eq ptr %.01115.i.i, null
  br i1 %.not16.i.i, label %._crit_edge.i.i, label %.lr.ph.i.i

.lr.ph.i.i:                                       ; preds = %.preheader.i.i, %14
  %.01118.i.i = phi ptr [ %.011.i.i, %14 ], [ %.01115.i.i, %.preheader.i.i ]
  %.117.i.i = phi i32 [ %16, %14 ], [ %.01219.i.i, %.preheader.i.i ]
  %10 = getelementptr inbounds i8, ptr %.01118.i.i, i64 8
  %11 = getelementptr inbounds i8, ptr %.01118.i.i, i64 16
  %12 = load ptr, ptr %10, align 8
  %13 = call noundef zeroext i1 @_ZN30CopyKlassSubGraphInfoToArchive8do_entryEP5KlassR17KlassSubGraphInfo(ptr noundef nonnull align 8 dereferenceable(8) %3, ptr noundef %12, ptr noundef nonnull align 8 dereferenceable(26) %11)
  br i1 %13, label %14, label %_ZNK21ResourceHashtableBaseI29FixedResourceHashtableStorageILj137EP5Klass17KlassSubGraphInfoES2_S3_LN6AnyObj15allocation_typeE2EL8MEMFLAGS13EXadL_Z29DumpTimeSharedClassTable_hashIS1_EjRKPT_EEXadL_Z16primitive_equalsIS2_EbRKS9_SF_EEE7iterateI30CopyKlassSubGraphInfoToArchiveEEvSA_.exit

14:                                               ; preds = %.lr.ph.i.i
  %15 = getelementptr inbounds i8, ptr %.01118.i.i, i64 48
  %16 = add nsw i32 %.117.i.i, -1
  %.011.i.i = load ptr, ptr %15, align 8
  %.not.i.i = icmp eq ptr %.011.i.i, null
  br i1 %.not.i.i, label %._crit_edge.i.i, label %.lr.ph.i.i, !llvm.loop !36

._crit_edge.i.i:                                  ; preds = %14, %.preheader.i.i
  %.1.lcssa.i.i = phi i32 [ %.01219.i.i, %.preheader.i.i ], [ %16, %14 ]
  %.0.add.i.i = add nuw nsw i64 %.0.idx20.i.i, 8
  %17 = icmp sgt i32 %.1.lcssa.i.i, 0
  %18 = icmp ult i64 %.0.idx20.i.i, 1088
  %or.cond.i.i = and i1 %18, %17
  br i1 %or.cond.i.i, label %.preheader.i.i, label %_ZNK21ResourceHashtableBaseI29FixedResourceHashtableStorageILj137EP5Klass17KlassSubGraphInfoES2_S3_LN6AnyObj15allocation_typeE2EL8MEMFLAGS13EXadL_Z29DumpTimeSharedClassTable_hashIS1_EjRKPT_EEXadL_Z16primitive_equalsIS2_EbRKS9_SF_EEE7iterateI30CopyKlassSubGraphInfoToArchiveEEvSA_.exit, !llvm.loop !37

_ZNK21ResourceHashtableBaseI29FixedResourceHashtableStorageILj137EP5Klass17KlassSubGraphInfoES2_S3_LN6AnyObj15allocation_typeE2EL8MEMFLAGS13EXadL_Z29DumpTimeSharedClassTable_hashIS1_EjRKPT_EEXadL_Z16primitive_equalsIS2_EbRKS9_SF_EEE7iterateI30CopyKlassSubGraphInfoToArchiveEEvSA_.exit: ; preds = %._crit_edge.i.i, %.lr.ph.i.i, %0
  call void @_ZN22CompactHashtableWriter4dumpEP22SimpleCompactHashtablePKc(ptr noundef nonnull align 8 dereferenceable(56) %2, ptr noundef nonnull @_ZN10HeapShared29_run_time_subgraph_info_tableE, ptr noundef nonnull @.str.51) #20
  %19 = load volatile ptr, ptr getelementptr inbounds (i8, ptr @_ZN16LogTagSetMappingILN6LogTag4typeE14ELS1_52ELS1_0ELS1_0ELS1_0ELS1_0EE7_tagsetE, i64 64), align 8
  %.not = icmp eq ptr %19, null
  br i1 %.not, label %21, label %20

20:                                               ; preds = %_ZNK21ResourceHashtableBaseI29FixedResourceHashtableStorageILj137EP5Klass17KlassSubGraphInfoES2_S3_LN6AnyObj15allocation_typeE2EL8MEMFLAGS13EXadL_Z29DumpTimeSharedClassTable_hashIS1_EjRKPT_EEXadL_Z16primitive_equalsIS2_EbRKS9_SF_EEE7iterateI30CopyKlassSubGraphInfoToArchiveEEvSA_.exit
  call void @_ZN10HeapShared11print_statsEv()
  br label %21

21:                                               ; preds = %20, %_ZNK21ResourceHashtableBaseI29FixedResourceHashtableStorageILj137EP5Klass17KlassSubGraphInfoES2_S3_LN6AnyObj15allocation_typeE2EL8MEMFLAGS13EXadL_Z29DumpTimeSharedClassTable_hashIS1_EjRKPT_EEXadL_Z16primitive_equalsIS2_EbRKS9_SF_EEE7iterateI30CopyKlassSubGraphInfoToArchiveEEvSA_.exit
  call void @_ZN22CompactHashtableWriterD1Ev(ptr noundef nonnull align 8 dereferenceable(56) %2) #20
  ret void
}